; Function Attrs: nounwind uwtable
define ptr @l_IO_Promise_result___rarg(ptr noundef %0) local_unnamed_addr #0 {
  %2 = tail call ptr @lean_io_promise_result_opt(ptr noundef %0) #3
  %3 = load ptr, ptr @l_IO_Promise_result_x21___rarg___closed__1, align 8, !tbaa !10
  %4 = load ptr, ptr @l_Task_Priority_default, align 8, !tbaa !10
  %5 = ptrtoint ptr %4 to i64
  %6 = lshr i64 %5, 1
  %7 = trunc i64 %6 to i32
  %8 = tail call ptr @lean_task_map_core(ptr noundef %3, ptr noundef %2, i32 noundef %7, i1 noundef zeroext true, i1 noundef zeroext false) #3
  ret ptr %8
}